; Function Attrs: nounwind sspstrong uwtable
define dso_local void @rb_parser_st_add_direct(ptr noundef captures(none) %0, i64 noundef %1, i64 noundef %2) local_unnamed_addr #0 {
  %4 = getelementptr i8, ptr %0, i64 8
  %.val = load ptr, ptr %4, align 8, !tbaa !7
  %5 = getelementptr i8, ptr %.val, i64 8
  %.val.val = load ptr, ptr %5, align 8, !tbaa !28
  %6 = tail call i64 %.val.val(i64 noundef %1) #25
  %7 = icmp eq i64 %6, -1
  %8 = select i1 %7, i64 0, i64 %6
  tail call fastcc void @st_add_direct_with_hash(ptr noundef %0, i64 noundef %1, i64 noundef %2, i64 noundef %8)
  ret void
}